Certificate:
    Data:
        Version: 3 (0x2)
        Serial Number:
            e4:d0:8f:ea:a1:17:a2:0d
    Signature Algorithm: sha256WithRSAEncryption
        Issuer: O=PrivateSign, OU=PrivateSign, CN=PrivateSign Root CA
        Validity
            Not Before: Mar  4 16:22:14 2019 GMT
            Not After : Mar  4 16:22:14 2039 GMT
        Subject: O=PrivateSign, OU=PrivateSign, CN=PrivateSign Root CA
        Subject Public Key Info:
            Public Key Algorithm: rsaEncryption
                Public-Key: (2048 bit)
                Modulus:
                    00:a7:aa:26:86:bb:65:b2:ae:dd:2b:82:8b:10:1d:
                    d6:72:65:0a:41:06:d9:1e:33:7f:42:88:ac:40:81:
                    a0:7a:1d:91:a6:ab:ba:5e:39:3b:42:1b:56:2b:a0:
                    f8:dc:96:3f:67:92:76:83:8b:17:15:b8:02:ab:eb:
                    f8:6e:52:1d:18:d6:91:3f:75:fc:d7:55:58:8b:84:
                    20:33:d5:fd:86:5e:83:d6:d6:f8:f0:c7:c4:21:22:
                    39:e6:da:cc:d6:50:88:bc:35:e5:21:89:33:2d:69:
                    74:d0:f4:f0:42:f5:94:ca:be:cd:27:1b:c7:ad:11:
                    77:e8:0e:f4:d3:9f:3b:8b:38:47:85:b1:26:99:cb:
                    27:d7:a3:6e:12:fb:91:4b:a9:b4:ad:c1:6c:37:11:
                    82:71:64:66:60:be:d3:3d:d6:cd:00:e7:f7:38:9c:
                    90:1e:db:a9:4a:dd:73:89:a0:3d:0b:56:3f:d8:13:
                    74:23:23:55:ca:05:ce:f2:3e:6d:6b:27:da:d8:29:
                    fe:65:c8:96:9f:76:11:e1:99:ec:b6:b4:02:49:9d:
                    38:2f:8a:9c:f8:22:dc:18:64:cb:41:1e:f5:82:06:
                    6c:58:d5:d2:8b:45:96:7f:6c:e0:49:9b:be:36:e7:
                    60:46:e0:57:3c:b4:f2:38:45:88:3e:92:56:ea:6a:
                    7d:db
                Exponent: 65537 (0x10001)
        X509v3 extensions:
            X509v3 Key Usage: critical
                Certificate Sign, CRL Sign
            X509v3 Basic Constraints: critical
                CA:TRUE
            X509v3 Subject Key Identifier: 
                DC:C7:84:D7:77:C8:F8:07:37:D2:D4:09:28:08:CC:7F:2E:0F:93:94
            X509v3 Authority Key Identifier: 
                keyid:DC:C7:84:D7:77:C8:F8:07:37:D2:D4:09:28:08:CC:7F:2E:0F:93:94

    Signature Algorithm: sha256WithRSAEncryption
         35:b0:f5:cd:a0:64:31:9c:75:02:95:86:7b:8e:0f:7c:6e:7e:
         47:79:c1:23:53:f7:6f:d6:2a:f7:7d:d6:8d:04:f9:8c:c9:22:
         4b:a8:e2:50:c5:f7:09:a4:d9:0d:e6:52:25:b1:5a:ff:32:ae:
         a9:02:e7:4b:0f:c0:09:f1:f2:52:ac:14:e3:69:50:ab:44:2e:
         ee:9e:7d:79:02:cb:d5:d3:65:fa:eb:fa:5d:82:51:0e:76:c6:
         6a:d3:f9:04:bb:ac:95:b8:0a:d4:c4:bd:11:f5:73:7d:92:12:
         a3:8e:5d:bd:d7:00:cc:39:c6:d4:63:ab:ab:2a:a6:32:a1:25:
         e1:0f:6f:87:f2:48:1c:96:90:c6:ce:f5:ec:e7:10:03:b2:7e:
         14:25:34:38:4d:9f:b0:f0:ac:01:06:d6:fe:d7:b8:71:aa:6c:
         9b:6a:3a:8c:99:6d:bb:13:22:b3:fe:85:57:65:27:ad:82:ba:
         9c:81:74:c4:ec:ef:00:60:51:32:70:9b:7c:ad:a7:bf:d3:54:
         c5:c7:fd:29:02:99:16:19:be:c9:ed:bf:b1:2b:71:7a:79:ae:
         12:e4:51:c1:d3:c2:25:2e:05:59:89:3a:1e:eb:8c:9a:3b:28:
         fe:c9:64:59:69:c4:c4:00:58:f6:98:30:63:26:59:91:84:46:
         bb:69:f5:8d
-----BEGIN CERTIFICATE-----
MIIDejCCAmKgAwIBAgIJAOTQj+qhF6INMA0GCSqGSIb3DQEBCwUAMEoxFDASBgNV
BAoMC1ByaXZhdGVTaWduMRQwEgYDVQQLDAtQcml2YXRlU2lnbjEcMBoGA1UEAwwT
UHJpdmF0ZVNpZ24gUm9vdCBDQTAeFw0xOTAzMDQxNjIyMTRaFw0zOTAzMDQxNjIy
MTRaMEoxFDASBgNVBAoMC1ByaXZhdGVTaWduMRQwEgYDVQQLDAtQcml2YXRlU2ln
bjEcMBoGA1UEAwwTUHJpdmF0ZVNpZ24gUm9vdCBDQTCCASIwDQYJKoZIhvcNAQEB
BQADggEPADCCAQoCggEBAKeqJoa7ZbKu3SuCixAd1nJlCkEG2R4zf0KIrECBoHod
kaarul45O0IbViug+NyWP2eSdoOLFxW4Aqvr+G5SHRjWkT91/NdVWIuEIDPV/YZe
g9bW+PDHxCEiOebazNZQiLw15SGJMy1pdND08EL1lMq+zScbx60Rd+gO9NOfO4s4
R4WxJpnLJ9ejbhL7kUuptK3BbDcRgnFkZmC+0z3WzQDn9zickB7bqUrdc4mgPQtW
P9gTdCMjVcoFzvI+bWsn2tgp/mXIlp92EeGZ7La0AkmdOC+KnPgi3Bhky0Ee9YIG
bFjV0otFln9s4EmbvjbnYEbgVzy08jhFiD6SVupqfdsCAwEAAaNjMGEwDgYDVR0P
AQH/BAQDAgEGMA8GA1UdEwEB/wQFMAMBAf8wHQYDVR0OBBYEFNzHhNd3yPgHN9LU
CSgIzH8uD5OUMB8GA1UdIwQYMBaAFNzHhNd3yPgHN9LUCSgIzH8uD5OUMA0GCSqG
SIb3DQEBCwUAA4IBAQA1sPXNoGQxnHUClYZ7jg98bn5HecEjU/dv1ir3fdaNBPmM
ySJLqOJQxfcJpNkN5lIlsVr/Mq6pAudLD8AJ8fJSrBTjaVCrRC7unn15AsvV02X6
6/pdglEOdsZq0/kEu6yVuArUxL0R9XN9khKjjl291wDMOcbUY6urKqYyoSXhD2+H
8kgclpDGzvXs5xADsn4UJTQ4TZ+w8KwBBtb+17hxqmybajqMmW27EyKz/oVXZSet
grqcgXTE7O8AYFEycJt8rae/01TFx/0pApkWGb7J7b+xK3F6ea4S5FHB08IlLgVZ
iToe64yaOyj+yWRZacTEAFj2mDBjJlmRhEa7afWN
-----END CERTIFICATE-----
