Certificate:
    Data:
        Version: 3 (0x2)
        Serial Number:
            29:28:25:06:04:43:b5:81:fe:5e:10:5b:e7:c3:06:a4:cf:ff:0b:f3
    Signature Algorithm: sha256WithRSAEncryption
        Issuer: C=CN, O=Private issued, OU=Root CA, CN=Private Root CA
        Validity
            Not Before: Mar  4 00:51:00 2019 GMT
            Not After : Feb  8 00:51:00 2119 GMT
        Subject: C=CN, O=Private issued, OU=Root CA, CN=Private Root CA
        Subject Public Key Info:
            Public Key Algorithm: rsaEncryption
                Public-Key: (2048 bit)
                Modulus:
                    00:a7:aa:26:86:bb:65:b2:ae:dd:2b:82:8b:10:1d:
                    d6:72:65:0a:41:06:d9:1e:33:7f:42:88:ac:40:81:
                    a0:7a:1d:91:a6:ab:ba:5e:39:3b:42:1b:56:2b:a0:
                    f8:dc:96:3f:67:92:76:83:8b:17:15:b8:02:ab:eb:
                    f8:6e:52:1d:18:d6:91:3f:75:fc:d7:55:58:8b:84:
                    20:33:d5:fd:86:5e:83:d6:d6:f8:f0:c7:c4:21:22:
                    39:e6:da:cc:d6:50:88:bc:35:e5:21:89:33:2d:69:
                    74:d0:f4:f0:42:f5:94:ca:be:cd:27:1b:c7:ad:11:
                    77:e8:0e:f4:d3:9f:3b:8b:38:47:85:b1:26:99:cb:
                    27:d7:a3:6e:12:fb:91:4b:a9:b4:ad:c1:6c:37:11:
                    82:71:64:66:60:be:d3:3d:d6:cd:00:e7:f7:38:9c:
                    90:1e:db:a9:4a:dd:73:89:a0:3d:0b:56:3f:d8:13:
                    74:23:23:55:ca:05:ce:f2:3e:6d:6b:27:da:d8:29:
                    fe:65:c8:96:9f:76:11:e1:99:ec:b6:b4:02:49:9d:
                    38:2f:8a:9c:f8:22:dc:18:64:cb:41:1e:f5:82:06:
                    6c:58:d5:d2:8b:45:96:7f:6c:e0:49:9b:be:36:e7:
                    60:46:e0:57:3c:b4:f2:38:45:88:3e:92:56:ea:6a:
                    7d:db
                Exponent: 65537 (0x10001)
        X509v3 extensions:
            X509v3 Key Usage: critical
                Certificate Sign, CRL Sign
            X509v3 Basic Constraints: critical
                CA:TRUE, pathlen:2
            X509v3 Subject Key Identifier: 
                DC:C7:84:D7:77:C8:F8:07:37:D2:D4:09:28:08:CC:7F:2E:0F:93:94
            X509v3 Authority Key Identifier: 
                keyid:DC:C7:84:D7:77:C8:F8:07:37:D2:D4:09:28:08:CC:7F:2E:0F:93:94

    Signature Algorithm: sha256WithRSAEncryption
         27:af:92:bf:e7:a0:fc:e7:34:e3:ba:1f:5a:0a:d6:33:44:fb:
         38:63:da:69:55:da:52:d7:10:d9:00:ad:ec:dc:27:05:b4:7e:
         a7:84:6a:c4:2d:a6:6b:ba:da:c0:d7:32:25:1b:e9:d7:b3:b4:
         51:d0:99:58:65:a6:2c:3b:d2:0a:5d:8d:dd:d9:56:25:80:a2:
         71:50:09:6f:5d:59:2c:a8:c0:ce:f8:e1:fc:83:9e:8f:1e:51:
         9b:44:90:cc:49:90:51:85:21:91:c5:18:15:e6:69:85:f5:90:
         fd:e9:b7:ff:05:ce:68:7a:ad:e2:05:2b:69:90:84:3e:83:1d:
         bc:f4:0e:61:6b:bb:05:49:a8:32:cf:cf:28:c6:30:fa:0c:8e:
         84:79:9b:f2:1c:a0:33:96:e9:52:60:62:76:7c:2c:6d:fb:90:
         cd:94:86:e5:56:9c:e9:3d:4b:c6:37:1e:28:e8:04:8d:13:b5:
         0d:21:65:c7:e0:df:53:0a:54:fc:51:86:b3:7b:36:97:f9:75:
         b5:6b:4e:d8:34:4e:9a:54:28:e3:36:09:92:76:ca:74:45:ae:
         41:9b:43:06:2d:6c:55:50:25:ee:12:84:52:d6:5c:36:30:68:
         af:c6:f1:8f:d0:9d:a9:51:b2:53:36:81:4b:00:eb:08:07:c5:
         eb:94:3d:21
-----BEGIN CERTIFICATE-----
MIIDmjCCAoKgAwIBAgIUKSglBgRDtYH+XhBb58MGpM//C/MwDQYJKoZIhvcNAQEL
BQAwUjELMAkGA1UEBhMCQ04xFzAVBgNVBAoTDlByaXZhdGUgaXNzdWVkMRAwDgYD
VQQLEwdSb290IENBMRgwFgYDVQQDEw9Qcml2YXRlIFJvb3QgQ0EwIBcNMTkwMzA0
MDA1MTAwWhgPMjExOTAyMDgwMDUxMDBaMFIxCzAJBgNVBAYTAkNOMRcwFQYDVQQK
Ew5Qcml2YXRlIGlzc3VlZDEQMA4GA1UECxMHUm9vdCBDQTEYMBYGA1UEAxMPUHJp
dmF0ZSBSb290IENBMIIBIjANBgkqhkiG9w0BAQEFAAOCAQ8AMIIBCgKCAQEAp6om
hrtlsq7dK4KLEB3WcmUKQQbZHjN/QoisQIGgeh2Rpqu6Xjk7QhtWK6D43JY/Z5J2
g4sXFbgCq+v4blIdGNaRP3X811VYi4QgM9X9hl6D1tb48MfEISI55trM1lCIvDXl
IYkzLWl00PTwQvWUyr7NJxvHrRF36A700587izhHhbEmmcsn16NuEvuRS6m0rcFs
NxGCcWRmYL7TPdbNAOf3OJyQHtupSt1ziaA9C1Y/2BN0IyNVygXO8j5tayfa2Cn+
ZciWn3YR4ZnstrQCSZ04L4qc+CLcGGTLQR71ggZsWNXSi0WWf2zgSZu+NudgRuBX
PLTyOEWIPpJW6mp92wIDAQABo2YwZDAOBgNVHQ8BAf8EBAMCAQYwEgYDVR0TAQH/
BAgwBgEB/wIBAjAdBgNVHQ4EFgQU3MeE13fI+Ac30tQJKAjMfy4Pk5QwHwYDVR0j
BBgwFoAU3MeE13fI+Ac30tQJKAjMfy4Pk5QwDQYJKoZIhvcNAQELBQADggEBACev
kr/noPznNOO6H1oK1jNE+zhj2mlV2lLXENkArezcJwW0fqeEasQtpmu62sDXMiUb
6deztFHQmVhlpiw70gpdjd3ZViWAonFQCW9dWSyowM744fyDno8eUZtEkMxJkFGF
IZHFGBXmaYX1kP3pt/8Fzmh6reIFK2mQhD6DHbz0DmFruwVJqDLPzyjGMPoMjoR5
m/IcoDOW6VJgYnZ8LG37kM2UhuVWnOk9S8Y3HijoBI0TtQ0hZcfg31MKVPxRhrN7
Npf5dbVrTtg0TppUKOM2CZJ2ynRFrkGbQwYtbFVQJe4ShFLWXDYwaK/G8Y/QnalR
slM2gUsA6wgHxeuUPSE=
-----END CERTIFICATE-----
